Certificate:
    Data:
        Version: 3 (0x2)
        Serial Number: 2 (0x2)
    Signature Algorithm: sha256WithRSAEncryption
        Issuer: C=CN, ST=hangzhou, O=EMQ, CN=RootCA
        Validity
            Not Before: May  8 08:07:05 2020 GMT
            Not After : May  6 08:07:05 2030 GMT
        Subject: C=CN, ST=hangzhou, O=EMQ, CN=Server
        Subject Public Key Info:
            Public Key Algorithm: rsaEncryption
                Public-Key: (2048 bit)
                Modulus:
                    00:b3:5e:59:3d:e9:13:e4:05:7e:24:49:cc:a9:a7:
                    00:c5:2b:5a:8d:ca:da:3f:d3:9b:7f:97:9e:5e:96:
                    2f:3e:bb:ff:4a:dc:62:b2:5b:6c:ab:d2:de:ec:91:
                    3f:fb:2d:5f:25:c4:2b:0f:42:7a:9c:90:d5:58:81:
                    54:59:16:02:8c:bc:a9:01:0e:58:50:ec:65:cf:f9:
                    53:38:57:52:76:fa:2d:7a:f7:a9:39:05:12:33:66:
                    86:3f:bb:bb:3b:ff:95:b0:71:95:41:b5:36:56:33:
                    49:e3:81:eb:f4:53:f3:31:ff:96:13:9e:2a:12:e7:
                    59:83:d7:75:72:ac:6b:51:4b:ea:28:f8:5f:c0:de:
                    0c:ed:64:63:b7:ef:00:69:81:9f:f4:c7:87:5b:93:
                    a4:38:b3:33:86:26:78:8f:bb:e1:d9:9a:c8:0e:71:
                    5e:f0:11:b5:ee:61:e1:5b:b9:48:8c:de:ee:20:b4:
                    e7:b3:7e:bf:29:93:a0:c9:36:26:09:3e:65:91:69:
                    c9:7a:e7:ab:ec:a8:e9:16:83:dc:03:5c:96:b7:38:
                    15:b7:94:41:9e:5a:e6:ce:52:c6:0b:3d:6b:46:37:
                    58:c1:be:ed:ce:55:9d:55:dc:6e:30:51:cf:f6:aa:
                    d8:db:4e:9d:04:23:8a:42:8a:40:0f:06:17:4f:34:
                    05:09
                Exponent: 65537 (0x10001)
        X509v3 extensions:
            X509v3 Basic Constraints: 
                CA:FALSE
            X509v3 Key Usage: 
                Digital Signature, Non Repudiation, Key Encipherment
    Signature Algorithm: sha256WithRSAEncryption
         97:9f:9c:c6:69:69:10:c7:41:23:54:20:42:f7:8b:01:97:13:
         d7:3a:3e:62:2c:41:51:36:ba:cb:6b:f8:26:a4:06:9d:d3:67:
         89:74:7a:72:ed:88:63:1f:11:51:63:bb:af:5c:3b:8a:32:a2:
         45:af:fa:19:79:78:23:24:1c:17:f5:e0:ab:f9:d6:f8:f8:e3:
         c8:e8:c1:89:c5:d7:39:b3:9f:b4:84:ce:6e:54:ce:5b:1a:b2:
         a8:ed:02:9a:e7:2f:2a:1f:eb:d5:ad:2d:4d:63:e6:b6:16:06:
         e1:57:f3:ac:8e:4f:04:40:14:d8:e6:f5:fb:e1:01:ca:c4:38:
         d0:6c:42:da:a2:a4:15:a4:31:13:a9:89:46:0c:91:1a:9b:29:
         c4:0c:77:0c:68:bf:e9:47:05:82:aa:f7:36:d6:46:8a:8b:44:
         e0:27:e7:84:91:aa:04:24:e9:cd:79:25:d1:1f:80:e3:a3:4a:
         16:ec:3a:42:07:52:1a:9c:c1:19:10:89:ce:e7:d7:3c:07:54:
         65:43:80:d2:19:56:09:89:d8:87:48:58:19:4f:10:2e:e8:2e:
         b4:6b:04:3f:d7:d6:21:04:5e:d2:9a:6f:aa:79:a3:6d:a7:28:
         1e:66:37:e8:90:68:4f:8e:7b:67:29:18:a6:49:88:94:5d:33:
         e2:2a:0c:34
-----BEGIN CERTIFICATE-----
MIIDEzCCAfugAwIBAgIBAjANBgkqhkiG9w0BAQsFADA/MQswCQYDVQQGEwJDTjER
MA8GA1UECAwIaGFuZ3pob3UxDDAKBgNVBAoMA0VNUTEPMA0GA1UEAwwGUm9vdENB
MB4XDTIwMDUwODA4MDcwNVoXDTMwMDUwNjA4MDcwNVowPzELMAkGA1UEBhMCQ04x
ETAPBgNVBAgMCGhhbmd6aG91MQwwCgYDVQQKDANFTVExDzANBgNVBAMMBlNlcnZl
cjCCASIwDQYJKoZIhvcNAQEBBQADggEPADCCAQoCggEBALNeWT3pE+QFfiRJzKmn
AMUrWo3K2j/Tm3+Xnl6WLz67/0rcYrJbbKvS3uyRP/stXyXEKw9CepyQ1ViBVFkW
Aoy8qQEOWFDsZc/5UzhXUnb6LXr3qTkFEjNmhj+7uzv/lbBxlUG1NlYzSeOB6/RT
8zH/lhOeKhLnWYPXdXKsa1FL6ij4X8DeDO1kY7fvAGmBn/THh1uTpDizM4YmeI+7
4dmayA5xXvARte5h4Vu5SIze7iC057N+vymToMk2Jgk+ZZFpyXrnq+yo6RaD3ANc
lrc4FbeUQZ5a5s5Sxgs9a0Y3WMG+7c5VnVXcbjBRz/aq2NtOnQQjikKKQA8GF080
BQkCAwEAAaMaMBgwCQYDVR0TBAIwADALBgNVHQ8EBAMCBeAwDQYJKoZIhvcNAQEL
BQADggEBAJefnMZpaRDHQSNUIEL3iwGXE9c6PmIsQVE2ustr+CakBp3TZ4l0enLt
iGMfEVFju69cO4oyokWv+hl5eCMkHBf14Kv51vj448jowYnF1zmzn7SEzm5Uzlsa
sqjtAprnLyof69WtLU1j5rYWBuFX86yOTwRAFNjm9fvhAcrEONBsQtqipBWkMROp
iUYMkRqbKcQMdwxov+lHBYKq9zbWRoqLROAn54SRqgQk6c15JdEfgOOjShbsOkIH
UhqcwRkQic7n1zwHVGVDgNIZVgmJ2IdIWBlPEC7oLrRrBD/X1iEEXtKab6p5o22n
KB5mN+iQaE+Oe2cpGKZJiJRdM+IqDDQ=
-----END CERTIFICATE-----
