Certificate:
    Data:
        Version: 3 (0x2)
        Serial Number: 1 (0x1)
    Signature Algorithm: sha256WithRSAEncryption
        Issuer: C=CN, ST=hangzhou, O=EMQ, CN=RootCA
        Validity
            Not Before: May  8 08:06:57 2020 GMT
            Not After : May  6 08:06:57 2030 GMT
        Subject: C=CN, ST=hangzhou, O=EMQ, CN=Client
        Subject Public Key Info:
            Public Key Algorithm: rsaEncryption
                Public-Key: (2048 bit)
                Modulus:
                    00:cc:b8:86:89:2c:29:c6:41:0d:b6:3a:f3:4b:ba:
                    4d:2d:b9:53:9d:67:b8:1d:45:05:c1:8c:94:5f:41:
                    fe:dd:39:ef:03:ce:97:11:7f:39:c9:9b:c5:8e:4c:
                    c1:ea:52:e3:52:43:18:f8:2e:94:4d:55:ed:fa:6c:
                    5e:48:96:d4:b5:22:99:85:7f:b6:ca:81:7f:29:88:
                    7b:49:a5:63:ba:0e:45:a8:4a:8e:2e:f3:29:0d:94:
                    04:85:45:85:d9:6f:43:1b:a7:94:80:e7:c3:a1:7d:
                    a6:8a:54:83:21:ed:74:c8:6d:96:06:4a:f2:8a:91:
                    c0:7c:4e:e5:d6:df:a2:e9:18:77:a2:7f:af:e7:ad:
                    4b:9a:b6:ea:c8:15:91:fd:c2:e9:db:74:4d:de:c1:
                    db:91:fd:a9:6f:9f:ee:82:d5:3d:b7:07:60:26:be:
                    8b:bd:ee:f7:ae:f4:9e:ba:57:b0:2f:90:73:b3:32:
                    83:06:b6:2a:af:e3:c1:4f:9f:b7:22:d0:9c:e7:96:
                    d3:b0:ee:cc:ec:2c:ce:20:bf:7d:06:5a:9d:bc:51:
                    fb:c5:3d:14:d7:ed:81:17:02:de:e3:ff:24:c2:98:
                    52:ab:22:44:0b:9a:0e:89:00:45:9c:55:4d:5e:61:
                    50:49:5f:a4:ee:b3:eb:f3:48:b5:20:ef:be:1d:e2:
                    7a:29
                Exponent: 65537 (0x10001)
        X509v3 extensions:
            X509v3 Basic Constraints: 
                CA:FALSE
            X509v3 Key Usage: 
                Digital Signature, Non Repudiation, Key Encipherment
    Signature Algorithm: sha256WithRSAEncryption
         17:21:63:12:a8:d1:83:26:6b:b8:35:a8:3b:30:25:7b:11:e6:
         ce:7a:0b:3c:7f:23:e0:78:d5:87:29:30:13:13:ad:1a:a9:50:
         2d:27:1e:d2:e4:33:bf:ed:66:9e:7d:da:ef:ed:4f:c8:33:12:
         74:23:64:b2:81:02:11:5e:65:a4:77:69:a2:b2:92:72:ea:c2:
         23:ea:24:88:20:d2:98:2c:04:62:13:ac:02:b7:3e:fe:33:e7:
         f6:2f:00:92:4a:81:37:b9:51:d7:93:cf:a5:38:96:f3:44:bb:
         1f:f8:8e:e6:78:a6:6a:87:e2:a4:85:25:33:b3:41:2e:cb:9a:
         04:a6:34:87:5d:d3:bd:ab:c1:70:5d:53:37:12:1f:3b:09:80:
         43:1b:f3:cb:bf:2c:32:e3:8f:5a:50:ec:0b:59:e1:3b:5a:f0:
         96:53:bd:c8:01:16:68:c1:d1:05:22:e9:f8:24:1d:8e:a8:19:
         ab:7f:5b:89:11:8d:24:54:06:53:14:6c:cf:dd:ae:bd:8f:57:
         34:5c:d9:dc:1b:14:89:77:5f:e6:44:ea:7e:52:97:76:70:44:
         00:bf:b3:dd:89:53:a0:8f:31:15:b4:da:6b:95:bb:ac:65:82:
         8a:da:36:03:c8:4a:7a:db:a5:1e:8a:8f:12:d9:91:57:a6:6d:
         7c:e3:34:d7
-----BEGIN CERTIFICATE-----
MIIDEzCCAfugAwIBAgIBATANBgkqhkiG9w0BAQsFADA/MQswCQYDVQQGEwJDTjER
MA8GA1UECAwIaGFuZ3pob3UxDDAKBgNVBAoMA0VNUTEPMA0GA1UEAwwGUm9vdENB
MB4XDTIwMDUwODA4MDY1N1oXDTMwMDUwNjA4MDY1N1owPzELMAkGA1UEBhMCQ04x
ETAPBgNVBAgMCGhhbmd6aG91MQwwCgYDVQQKDANFTVExDzANBgNVBAMMBkNsaWVu
dDCCASIwDQYJKoZIhvcNAQEBBQADggEPADCCAQoCggEBAMy4hoksKcZBDbY680u6
TS25U51nuB1FBcGMlF9B/t057wPOlxF/OcmbxY5MwepS41JDGPgulE1V7fpsXkiW
1LUimYV/tsqBfymIe0mlY7oORahKji7zKQ2UBIVFhdlvQxunlIDnw6F9popUgyHt
dMhtlgZK8oqRwHxO5dbfoukYd6J/r+etS5q26sgVkf3C6dt0Td7B25H9qW+f7oLV
PbcHYCa+i73u9670nrpXsC+Qc7Mygwa2Kq/jwU+ftyLQnOeW07DuzOwsziC/fQZa
nbxR+8U9FNftgRcC3uP/JMKYUqsiRAuaDokARZxVTV5hUElfpO6z6/NItSDvvh3i
eikCAwEAAaMaMBgwCQYDVR0TBAIwADALBgNVHQ8EBAMCBeAwDQYJKoZIhvcNAQEL
BQADggEBABchYxKo0YMma7g1qDswJXsR5s56Czx/I+B41YcpMBMTrRqpUC0nHtLk
M7/tZp592u/tT8gzEnQjZLKBAhFeZaR3aaKyknLqwiPqJIgg0pgsBGITrAK3Pv4z
5/YvAJJKgTe5UdeTz6U4lvNEux/4juZ4pmqH4qSFJTOzQS7LmgSmNIdd072rwXBd
UzcSHzsJgEMb88u/LDLjj1pQ7AtZ4Tta8JZTvcgBFmjB0QUi6fgkHY6oGat/W4kR
jSRUBlMUbM/drr2PVzRc2dwbFIl3X+ZE6n5Sl3ZwRAC/s92JU6CPMRW02muVu6xl
goraNgPISnrbpR6KjxLZkVembXzjNNc=
-----END CERTIFICATE-----
